; Function Attrs: mustprogress nounwind uwtable
define dso_local noundef zeroext i1 @_ZNK5clang10TargetInfo14isValidClobberEN4llvm9StringRefE(ptr noundef nonnull align 8 dereferenceable(489) %0, ptr %1, i64 %2) local_unnamed_addr #0 align 2 {
  %4 = load ptr, ptr %0, align 8
  %5 = getelementptr inbounds nuw i8, ptr %4, i64 296
  %6 = load ptr, ptr %5, align 8
  %7 = tail call noundef zeroext i1 %6(ptr noundef nonnull align 8 dereferenceable(489) %0, ptr %1, i64 %2) #21
  br i1 %7, label %_ZN4llvmeqENS_9StringRefES0_.exit18, label %8

8:                                                ; preds = %3
  switch i64 %2, label %_ZN4llvmeqENS_9StringRefES0_.exit18 [
    i64 6, label %_ZN4llvmeqENS_9StringRefES0_.exit
    i64 2, label %_ZN4llvmeqENS_9StringRefES0_.exit18.sink.split
  ]

_ZN4llvmeqENS_9StringRefES0_.exit:                ; preds = %8
  %bcmp.i = tail call i32 @bcmp(ptr noundef nonnull dereferenceable(6) %1, ptr noundef nonnull dereferenceable(6) @.str.40, i64 6)
  %9 = icmp eq i32 %bcmp.i, 0
  br i1 %9, label %_ZN4llvmeqENS_9StringRefES0_.exit18, label %_ZN4llvmeqENS_9StringRefES0_.exit18.sink.split

_ZN4llvmeqENS_9StringRefES0_.exit18.sink.split:   ; preds = %_ZN4llvmeqENS_9StringRefES0_.exit, %8
  %.str.41.sink = phi ptr [ @.str.41, %8 ], [ @.str.42, %_ZN4llvmeqENS_9StringRefES0_.exit ]
  %bcmp.i13 = tail call i32 @bcmp(ptr %1, ptr nonnull %.str.41.sink, i64 %2)
  %10 = icmp eq i32 %bcmp.i13, 0
  br label %_ZN4llvmeqENS_9StringRefES0_.exit18

_ZN4llvmeqENS_9StringRefES0_.exit18:              ; preds = %_ZN4llvmeqENS_9StringRefES0_.exit18.sink.split, %8, %_ZN4llvmeqENS_9StringRefES0_.exit, %3
  %11 = phi i1 [ true, %_ZN4llvmeqENS_9StringRefES0_.exit ], [ true, %3 ], [ false, %8 ], [ %10, %_ZN4llvmeqENS_9StringRefES0_.exit18.sink.split ]
  ret i1 %11
}